; Function Attrs: mustprogress nofree norecurse nosync nounwind willreturn memory(argmem: readwrite) uwtable
define void @lv_matrix_transform_point(ptr nocapture noundef readonly %0, ptr nocapture noundef %1) local_unnamed_addr #0 {
  %3 = load float, ptr %1, align 4, !tbaa !3
  %4 = getelementptr inbounds nuw i8, ptr %1, i64 4
  %5 = load float, ptr %4, align 4, !tbaa !8
  %6 = load float, ptr %0, align 4, !tbaa !9
  %7 = getelementptr inbounds i8, ptr %0, i64 12
  %8 = load float, ptr %7, align 4, !tbaa !9
  %9 = fmul float %5, %8
  %10 = tail call float @llvm.fmuladd.f32(float %3, float %6, float %9)
  %11 = getelementptr inbounds i8, ptr %0, i64 8
  %12 = load float, ptr %11, align 4, !tbaa !9
  %13 = fadd float %12, %10
  store float %13, ptr %1, align 4, !tbaa !3
  %14 = getelementptr inbounds i8, ptr %0, i64 4
  %15 = load float, ptr %14, align 4, !tbaa !9
  %16 = getelementptr inbounds i8, ptr %0, i64 16
  %17 = load float, ptr %16, align 4, !tbaa !9
  %18 = fmul float %5, %17
  %19 = tail call float @llvm.fmuladd.f32(float %3, float %15, float %18)
  %20 = getelementptr inbounds i8, ptr %0, i64 20
  %21 = load float, ptr %20, align 4, !tbaa !9
  %22 = fadd float %21, %19
  store float %22, ptr %4, align 4, !tbaa !8
  ret void
}